; Function Attrs: nounwind uwtable
define internal range(i32 0, 2) i32 @i2r_USER_NOTICE_SYNTAX(ptr readnone captures(none) %0, ptr noundef %1, ptr noundef %2, i32 noundef %3) #1 {
  %5 = tail call i32 (ptr, ptr, ...) @BIO_printf(ptr noundef %2, ptr noundef nonnull @.str.1, i32 noundef %3, ptr noundef nonnull @.str.2) #3
  %6 = icmp slt i32 %5, 1
  br i1 %6, label %print_notice.exit.thread, label %.preheader

.preheader:                                       ; preds = %4
  %7 = tail call i32 @OPENSSL_sk_num(ptr noundef %1) #3
  %8 = icmp sgt i32 %7, 0
  br i1 %8, label %.lr.ph, label %print_notice.exit.thread

.lr.ph:                                           ; preds = %.preheader
  %9 = add nsw i32 %3, 4
  br label %14

10:                                               ; preds = %print_notice.exit.thread14
  %11 = add nuw nsw i32 %.01119, 1
  %12 = tail call i32 @OPENSSL_sk_num(ptr noundef %1) #3
  %13 = icmp slt i32 %11, %12
  br i1 %13, label %14, label %print_notice.exit.thread, !llvm.loop !3

14:                                               ; preds = %.lr.ph, %10
  %.01119 = phi i32 [ 0, %.lr.ph ], [ %11, %10 ]
  %15 = tail call ptr @OPENSSL_sk_value(ptr noundef %1, i32 noundef %.01119) #3
  %16 = load ptr, ptr %15, align 8, !tbaa !5
  %.not.i = icmp eq ptr %16, null
  br i1 %.not.i, label %62, label %17

17:                                               ; preds = %14
  %18 = load ptr, ptr %16, align 8, !tbaa !12
  %19 = load i32, ptr %18, align 8, !tbaa !15
  %20 = getelementptr inbounds nuw i8, ptr %18, i64 8
  %21 = load ptr, ptr %20, align 8, !tbaa !20
  %22 = tail call i32 (ptr, ptr, ...) @BIO_printf(ptr noundef %2, ptr noundef nonnull @.str.4, i32 noundef range(i32 -2147483644, -2147483648) %9, ptr noundef nonnull @.str.2, i32 noundef %19, ptr noundef %21) #3
  %23 = icmp slt i32 %22, 1
  br i1 %23, label %print_notice.exit.thread, label %24

24:                                               ; preds = %17
  %25 = getelementptr inbounds nuw i8, ptr %16, i64 8
  %26 = load ptr, ptr %25, align 8, !tbaa !21
  %27 = tail call i32 @OPENSSL_sk_num(ptr noundef %26) #3
  %28 = icmp sgt i32 %27, 1
  %29 = select i1 %28, ptr @.str.6, ptr @.str.2
  %30 = tail call i32 (ptr, ptr, ...) @BIO_printf(ptr noundef %2, ptr noundef nonnull @.str.5, i32 noundef range(i32 -2147483644, -2147483648) %9, ptr noundef nonnull @.str.2, ptr noundef nonnull %29) #3
  %31 = icmp slt i32 %30, 1
  br i1 %31, label %print_notice.exit.thread, label %.preheader.i

.preheader.i:                                     ; preds = %24
  %32 = load ptr, ptr %25, align 8, !tbaa !21
  %33 = tail call i32 @OPENSSL_sk_num(ptr noundef %32) #3
  %34 = icmp sgt i32 %33, 0
  br i1 %34, label %.lr.ph.i, label %._crit_edge.i

.lr.ph.i:                                         ; preds = %.preheader.i, %52
  %.03339.i = phi i32 [ %53, %52 ], [ 0, %.preheader.i ]
  %35 = load ptr, ptr %25, align 8, !tbaa !21
  %36 = tail call ptr @OPENSSL_sk_value(ptr noundef %35, i32 noundef %.03339.i) #3
  %.not38.i = icmp eq i32 %.03339.i, 0
  br i1 %.not38.i, label %40, label %37

37:                                               ; preds = %.lr.ph.i
  %38 = tail call i32 @BIO_puts(ptr noundef %2, ptr noundef nonnull @.str.7) #3
  %39 = icmp slt i32 %38, 1
  br i1 %39, label %print_notice.exit.thread, label %40

40:                                               ; preds = %37, %.lr.ph.i
  %41 = icmp eq ptr %36, null
  br i1 %41, label %42, label %45

42:                                               ; preds = %40
  %43 = tail call i32 @BIO_puts(ptr noundef %2, ptr noundef nonnull @.str.8) #3
  %44 = icmp slt i32 %43, 1
  br i1 %44, label %print_notice.exit.thread, label %45

45:                                               ; preds = %42, %40
  %46 = tail call ptr @i2s_ASN1_INTEGER(ptr noundef null, ptr noundef %36) #3
  %47 = icmp eq ptr %46, null
  br i1 %47, label %print_notice.exit.thread, label %48

48:                                               ; preds = %45
  %49 = tail call i32 @BIO_puts(ptr noundef %2, ptr noundef nonnull %46) #3
  %50 = icmp slt i32 %49, 1
  br i1 %50, label %51, label %52

51:                                               ; preds = %48
  tail call void @CRYPTO_free(ptr noundef nonnull %46, ptr noundef nonnull @.str.9, i32 noundef 47) #3
  br label %print_notice.exit.thread

52:                                               ; preds = %48
  tail call void @CRYPTO_free(ptr noundef nonnull %46, ptr noundef nonnull @.str.9, i32 noundef 50) #3
  %53 = add nuw nsw i32 %.03339.i, 1
  %54 = load ptr, ptr %25, align 8, !tbaa !21
  %55 = tail call i32 @OPENSSL_sk_num(ptr noundef %54) #3
  %56 = icmp slt i32 %53, %55
  br i1 %56, label %.lr.ph.i, label %._crit_edge.i, !llvm.loop !22

._crit_edge.i:                                    ; preds = %52, %.preheader.i
  %57 = getelementptr inbounds nuw i8, ptr %15, i64 8
  %58 = load ptr, ptr %57, align 8, !tbaa !23
  %.not37.i = icmp eq ptr %58, null
  br i1 %.not37.i, label %62, label %59

59:                                               ; preds = %._crit_edge.i
  %60 = tail call i32 @BIO_puts(ptr noundef %2, ptr noundef nonnull @.str.10) #3
  %61 = icmp slt i32 %60, 1
  br i1 %61, label %print_notice.exit.thread, label %62

62:                                               ; preds = %59, %._crit_edge.i, %14
  %63 = getelementptr inbounds nuw i8, ptr %15, i64 8
  %64 = load ptr, ptr %63, align 8, !tbaa !23
  %65 = icmp eq ptr %64, null
  br i1 %65, label %print_notice.exit.thread14, label %print_notice.exit

print_notice.exit:                                ; preds = %62
  %66 = load i32, ptr %64, align 8, !tbaa !15
  %67 = getelementptr inbounds nuw i8, ptr %64, i64 8
  %68 = load ptr, ptr %67, align 8, !tbaa !20
  %69 = tail call i32 (ptr, ptr, ...) @BIO_printf(ptr noundef %2, ptr noundef nonnull @.str.11, i32 noundef range(i32 -2147483644, -2147483648) %9, ptr noundef nonnull @.str.2, i32 noundef %66, ptr noundef %68) #3
  %70 = icmp slt i32 %69, 0
  br i1 %70, label %print_notice.exit.thread, label %print_notice.exit.thread14

print_notice.exit.thread14:                       ; preds = %62, %print_notice.exit
  %71 = tail call i32 @BIO_puts(ptr noundef %2, ptr noundef nonnull @.str.3) #3
  %72 = icmp slt i32 %71, 1
  br i1 %72, label %print_notice.exit.thread, label %10

print_notice.exit.thread:                         ; preds = %print_notice.exit, %print_notice.exit.thread14, %10, %59, %24, %17, %37, %42, %45, %.preheader, %51, %4
  %.0 = phi i32 [ 0, %4 ], [ 0, %51 ], [ 1, %.preheader ], [ 0, %45 ], [ 0, %42 ], [ 0, %37 ], [ 0, %print_notice.exit ], [ 0, %print_notice.exit.thread14 ], [ 1, %10 ], [ 0, %59 ], [ 0, %24 ], [ 0, %17 ]
  ret i32 %.0
}